target datalayout = "e-m:e-p270:32:32-p271:32:32-p272:64:64-i64:64-i128:128-f80:128-n8:16:32:64-S128"
target triple = "x86_64-pc-linux-gnu"

@packetbb_handle = internal global ptr null, align 8
@proto_register_packetbb.ett = internal global [525 x ptr] zeroinitializer, align 16
@ett_packetbb_msg = internal global [256 x i32] zeroinitializer, align 16
@ett_packetbb_tlv = internal global [256 x i32] zeroinitializer, align 16
@.str.142 = private unnamed_addr constant [18 x i8] c"PacketBB Protocol\00", align 1
@.str.143 = private unnamed_addr constant [9 x i8] c"PacketBB\00", align 1
@.str.144 = private unnamed_addr constant [9 x i8] c"packetbb\00", align 1
@proto_packetbb = internal global i32 0, align 4

; Function Attrs: alwaysinline nounwind
define internal ptr @memcpy.inline(ptr noalias %0, ptr noalias %1, i64 %2) #4 {
  %4 = alloca ptr, align 8
  %5 = alloca ptr, align 8
  %6 = alloca i64, align 8
  store ptr %0, ptr %4, align 8
  store ptr %1, ptr %5, align 8
  store i64 %2, ptr %6, align 8
  %7 = load ptr, ptr %4, align 8
  %8 = load ptr, ptr %5, align 8
  %9 = load i64, ptr %6, align 8
  %10 = load ptr, ptr %4, align 8
  %11 = call i64 @llvm.objectsize.i64.p0(ptr %10, i1 false, i1 true, i1 true)
  %12 = call ptr @__memcpy_chk(ptr noundef %7, ptr noundef %8, i64 noundef %9, i64 noundef %11) #9
  ret ptr %12
}

; Function Attrs: null_pointer_is_valid sspstrong uwtable
define hidden void @proto_register_packetbb() #0 {
  %1 = alloca [13 x ptr], align 16
  %2 = alloca ptr, align 8
  %3 = alloca i32, align 4
  %4 = alloca i32, align 4
  call void @llvm.lifetime.start.p0(i64 104, ptr %1) #9
  call void @llvm.memcpy.p0.p0.i64(ptr align 16 %1, ptr align 16 @__const.proto_register_packetbb.ett_base, i64 104, i1 false)
  call void @llvm.lifetime.start.p0(i64 8, ptr %2) #9
  call void @llvm.lifetime.start.p0(i64 4, ptr %3) #9
  call void @llvm.lifetime.start.p0(i64 4, ptr %4) #9
  %5 = getelementptr inbounds [13 x ptr], ptr %1, i64 0, i64 0
  %6 = call ptr @memcpy.inline(ptr noundef @proto_register_packetbb.ett, ptr noundef %5, i64 noundef 104) #9
  store i32 13, ptr %4, align 4
  store i32 0, ptr %3, align 4
  br label %7

7:                                                ; preds = %25, %0
  %8 = load i32, ptr %3, align 4
  %9 = icmp slt i32 %8, 256
  br i1 %9, label %10, label %28

10:                                               ; preds = %7
  %11 = load i32, ptr %3, align 4
  %12 = sext i32 %11 to i64
  %13 = getelementptr [256 x i32], ptr @ett_packetbb_msg, i64 0, i64 %12
  %14 = load i32, ptr %4, align 4
  %15 = add i32 %14, 1
  store i32 %15, ptr %4, align 4
  %16 = sext i32 %14 to i64
  %17 = getelementptr [525 x ptr], ptr @proto_register_packetbb.ett, i64 0, i64 %16
  store ptr %13, ptr %17, align 8
  %18 = load i32, ptr %3, align 4
  %19 = sext i32 %18 to i64
  %20 = getelementptr [256 x i32], ptr @ett_packetbb_tlv, i64 0, i64 %19
  %21 = load i32, ptr %4, align 4
  %22 = add i32 %21, 1
  store i32 %22, ptr %4, align 4
  %23 = sext i32 %21 to i64
  %24 = getelementptr [525 x ptr], ptr @proto_register_packetbb.ett, i64 0, i64 %23
  store ptr %20, ptr %24, align 8
  br label %25

25:                                               ; preds = %10
  %26 = load i32, ptr %3, align 4
  %27 = add i32 %26, 1
  store i32 %27, ptr %3, align 4
  br label %7, !llvm.loop !6

28:                                               ; preds = %7
  %29 = call i32 @proto_register_protocol(ptr noundef @.str.142, ptr noundef @.str.143, ptr noundef @.str.144)
  store i32 %29, ptr @proto_packetbb, align 4
  %30 = load i32, ptr @proto_packetbb, align 4
  %31 = call ptr @register_dissector(ptr noundef @.str.144, ptr noundef @dissect_packetbb, i32 noundef %30)
  store ptr %31, ptr @packetbb_handle, align 8
  %32 = load i32, ptr @proto_packetbb, align 4
  call void @proto_register_field_array(i32 noundef %32, ptr noundef @proto_register_packetbb.hf, i32 noundef 77)
  call void @proto_register_subtree_array(ptr noundef @proto_register_packetbb.ett, i32 noundef 525)
  %33 = load i32, ptr @proto_packetbb, align 4
  %34 = call ptr @expert_register_protocol(i32 noundef %33)
  store ptr %34, ptr %2, align 8
  %35 = load ptr, ptr %2, align 8
  call void @expert_register_field_array(ptr noundef %35, ptr noundef @proto_register_packetbb.ei, i32 noundef 1)
  call void @llvm.lifetime.end.p0(i64 4, ptr %4) #9
  call void @llvm.lifetime.end.p0(i64 4, ptr %3) #9
  call void @llvm.lifetime.end.p0(i64 8, ptr %2) #9
  call void @llvm.lifetime.end.p0(i64 104, ptr %1) #9
  ret void
}