; Function Attrs: null_pointer_is_valid sspstrong uwtable
define hidden void @proto_register_packetbb() local_unnamed_addr #0 {
  tail call void @llvm.memcpy.p0.p0.i64(ptr noundef nonnull align 16 dereferenceable(104) @proto_register_packetbb.ett, ptr noundef nonnull align 16 dereferenceable(104) @__const.proto_register_packetbb.ett_base, i64 noundef 104, i1 noundef false) #6
  br label %1

1:                                                ; preds = %0, %1
  %indvars.iv9 = phi i64 [ 0, %0 ], [ %indvars.iv.next10, %1 ]
  %indvars.iv = phi i64 [ 13, %0 ], [ %indvars.iv.next, %1 ]
  %2 = getelementptr [256 x i32], ptr @ett_packetbb_msg, i64 0, i64 %indvars.iv9
  %3 = add nuw nsw i64 %indvars.iv, 1
  %4 = getelementptr [525 x ptr], ptr @proto_register_packetbb.ett, i64 0, i64 %indvars.iv
  store ptr %2, ptr %4, align 8
  %5 = getelementptr [256 x i32], ptr @ett_packetbb_tlv, i64 0, i64 %indvars.iv9
  %indvars.iv.next = add nuw nsw i64 %indvars.iv, 2
  %6 = getelementptr [525 x ptr], ptr @proto_register_packetbb.ett, i64 0, i64 %3
  store ptr %5, ptr %6, align 8
  %indvars.iv.next10 = add nuw nsw i64 %indvars.iv9, 1
  %exitcond.not = icmp eq i64 %indvars.iv.next10, 256
  br i1 %exitcond.not, label %7, label %1, !llvm.loop !6

7:                                                ; preds = %1
  %8 = tail call i32 @proto_register_protocol(ptr noundef nonnull @.str.142, ptr noundef nonnull @.str.143, ptr noundef nonnull @.str.144)
  store i32 %8, ptr @proto_packetbb, align 4
  %9 = tail call ptr @register_dissector(ptr noundef nonnull @.str.144, ptr noundef nonnull @dissect_packetbb, i32 noundef %8)
  store ptr %9, ptr @packetbb_handle, align 8
  %10 = load i32, ptr @proto_packetbb, align 4
  tail call void @proto_register_field_array(i32 noundef %10, ptr noundef nonnull @proto_register_packetbb.hf, i32 noundef 77)
  tail call void @proto_register_subtree_array(ptr noundef nonnull @proto_register_packetbb.ett, i32 noundef 525)
  %11 = load i32, ptr @proto_packetbb, align 4
  %12 = tail call ptr @expert_register_protocol(i32 noundef %11)
  tail call void @expert_register_field_array(ptr noundef %12, ptr noundef nonnull @proto_register_packetbb.ei, i32 noundef 1)
  ret void
}